target datalayout = "e-m:e-p270:32:32-p271:32:32-p272:64:64-i64:64-i128:128-f80:128-n8:16:32:64-S128"
target triple = "x86_64-pc-linux-gnu"

%struct.SynthFilterContext = type { ptr, ptr, ptr, ptr }

; Function Attrs: nounwind uwtable
define internal void @sub_qmf64_float_c(ptr noundef %0, ptr noundef %1, ptr noundef %2, ptr noundef %3, ptr noundef %4, ptr noundef %5, ptr noundef %6, ptr noundef %7, ptr noundef %8, ptr noundef %9, i64 noundef %10, float noundef %11) #1 {
  %13 = alloca ptr, align 8
  %14 = alloca ptr, align 8
  %15 = alloca ptr, align 8
  %16 = alloca ptr, align 8
  %17 = alloca ptr, align 8
  %18 = alloca ptr, align 8
  %19 = alloca ptr, align 8
  %20 = alloca ptr, align 8
  %21 = alloca ptr, align 8
  %22 = alloca ptr, align 8
  %23 = alloca i64, align 8
  %24 = alloca float, align 4
  %25 = alloca [64 x float], align 16
  %26 = alloca ptr, align 8
  %27 = alloca i32, align 4
  %28 = alloca i32, align 4
  store ptr %0, ptr %13, align 8, !tbaa !47
  store ptr %1, ptr %14, align 8, !tbaa !49
  store ptr %2, ptr %15, align 8, !tbaa !12
  store ptr %3, ptr %16, align 8, !tbaa !42
  store ptr %4, ptr %17, align 8, !tbaa !25
  store ptr %5, ptr %18, align 8, !tbaa !25
  store ptr %6, ptr %19, align 8, !tbaa !42
  store ptr %7, ptr %20, align 8, !tbaa !28
  store ptr %8, ptr %21, align 8, !tbaa !42
  store ptr %9, ptr %22, align 8, !tbaa !42
  store i64 %10, ptr %23, align 8, !tbaa !32
  store float %11, ptr %24, align 4, !tbaa !44
  call void @llvm.lifetime.start.p0(i64 256, ptr %25) #7
  call void @llvm.lifetime.start.p0(i64 8, ptr %26) #7
  %29 = getelementptr inbounds [64 x float], ptr %25, i64 0, i64 0
  store ptr %29, ptr %26, align 8, !tbaa !42
  call void @llvm.lifetime.start.p0(i64 4, ptr %27) #7
  call void @llvm.lifetime.start.p0(i64 4, ptr %28) #7
  %30 = load ptr, ptr %18, align 8, !tbaa !25
  %31 = icmp ne ptr %30, null
  br i1 %31, label %35, label %32

32:                                               ; preds = %12
  %33 = load ptr, ptr %26, align 8, !tbaa !42
  %34 = getelementptr inbounds float, ptr %33, i64 32
  call void @llvm.memset.p0.i64(ptr align 4 %34, i8 0, i64 128, i1 false)
  br label %35

35:                                               ; preds = %32, %12
  store i32 0, ptr %28, align 4, !tbaa !34
  br label %36

36:                                               ; preds = %213, %35
  %37 = load i32, ptr %28, align 4, !tbaa !34
  %38 = sext i32 %37 to i64
  %39 = load i64, ptr %23, align 8, !tbaa !32
  %40 = icmp slt i64 %38, %39
  br i1 %40, label %41, label %216

41:                                               ; preds = %36
  %42 = load ptr, ptr %18, align 8, !tbaa !25
  %43 = icmp ne ptr %42, null
  br i1 %43, label %44, label %153

44:                                               ; preds = %41
  store i32 0, ptr %27, align 4, !tbaa !34
  br label %45

45:                                               ; preds = %105, %44
  %46 = load i32, ptr %27, align 4, !tbaa !34
  %47 = icmp slt i32 %46, 32
  br i1 %47, label %48, label %108

48:                                               ; preds = %45
  %49 = load i32, ptr %27, align 4, !tbaa !34
  %50 = sub nsw i32 %49, 1
  %51 = and i32 %50, 2
  %52 = icmp ne i32 %51, 0
  br i1 %52, label %53, label %79

53:                                               ; preds = %48
  %54 = load ptr, ptr %17, align 8, !tbaa !25
  %55 = load i32, ptr %27, align 4, !tbaa !34
  %56 = sext i32 %55 to i64
  %57 = getelementptr inbounds ptr, ptr %54, i64 %56
  %58 = load ptr, ptr %57, align 8, !tbaa !28
  %59 = load i32, ptr %28, align 4, !tbaa !34
  %60 = sext i32 %59 to i64
  %61 = getelementptr inbounds i32, ptr %58, i64 %60
  %62 = load i32, ptr %61, align 4, !tbaa !34
  %63 = sub nsw i32 0, %62
  %64 = load ptr, ptr %18, align 8, !tbaa !25
  %65 = load i32, ptr %27, align 4, !tbaa !34
  %66 = sext i32 %65 to i64
  %67 = getelementptr inbounds ptr, ptr %64, i64 %66
  %68 = load ptr, ptr %67, align 8, !tbaa !28
  %69 = load i32, ptr %28, align 4, !tbaa !34
  %70 = sext i32 %69 to i64
  %71 = getelementptr inbounds i32, ptr %68, i64 %70
  %72 = load i32, ptr %71, align 4, !tbaa !34
  %73 = sub nsw i32 %63, %72
  %74 = sitofp i32 %73 to float
  %75 = load ptr, ptr %26, align 8, !tbaa !42
  %76 = load i32, ptr %27, align 4, !tbaa !34
  %77 = sext i32 %76 to i64
  %78 = getelementptr inbounds float, ptr %75, i64 %77
  store float %74, ptr %78, align 4, !tbaa !44
  br label %104

79:                                               ; preds = %48
  %80 = load ptr, ptr %17, align 8, !tbaa !25
  %81 = load i32, ptr %27, align 4, !tbaa !34
  %82 = sext i32 %81 to i64
  %83 = getelementptr inbounds ptr, ptr %80, i64 %82
  %84 = load ptr, ptr %83, align 8, !tbaa !28
  %85 = load i32, ptr %28, align 4, !tbaa !34
  %86 = sext i32 %85 to i64
  %87 = getelementptr inbounds i32, ptr %84, i64 %86
  %88 = load i32, ptr %87, align 4, !tbaa !34
  %89 = load ptr, ptr %18, align 8, !tbaa !25
  %90 = load i32, ptr %27, align 4, !tbaa !34
  %91 = sext i32 %90 to i64
  %92 = getelementptr inbounds ptr, ptr %89, i64 %91
  %93 = load ptr, ptr %92, align 8, !tbaa !28
  %94 = load i32, ptr %28, align 4, !tbaa !34
  %95 = sext i32 %94 to i64
  %96 = getelementptr inbounds i32, ptr %93, i64 %95
  %97 = load i32, ptr %96, align 4, !tbaa !34
  %98 = add nsw i32 %88, %97
  %99 = sitofp i32 %98 to float
  %100 = load ptr, ptr %26, align 8, !tbaa !42
  %101 = load i32, ptr %27, align 4, !tbaa !34
  %102 = sext i32 %101 to i64
  %103 = getelementptr inbounds float, ptr %100, i64 %102
  store float %99, ptr %103, align 4, !tbaa !44
  br label %104

104:                                              ; preds = %79, %53
  br label %105

105:                                              ; preds = %104
  %106 = load i32, ptr %27, align 4, !tbaa !34
  %107 = add nsw i32 %106, 1
  store i32 %107, ptr %27, align 4, !tbaa !34
  br label %45, !llvm.loop !55

108:                                              ; preds = %45
  store i32 32, ptr %27, align 4, !tbaa !34
  br label %109

109:                                              ; preds = %149, %108
  %110 = load i32, ptr %27, align 4, !tbaa !34
  %111 = icmp slt i32 %110, 64
  br i1 %111, label %112, label %152

112:                                              ; preds = %109
  %113 = load i32, ptr %27, align 4, !tbaa !34
  %114 = sub nsw i32 %113, 1
  %115 = and i32 %114, 2
  %116 = icmp ne i32 %115, 0
  br i1 %116, label %117, label %133

117:                                              ; preds = %112
  %118 = load ptr, ptr %18, align 8, !tbaa !25
  %119 = load i32, ptr %27, align 4, !tbaa !34
  %120 = sext i32 %119 to i64
  %121 = getelementptr inbounds ptr, ptr %118, i64 %120
  %122 = load ptr, ptr %121, align 8, !tbaa !28
  %123 = load i32, ptr %28, align 4, !tbaa !34
  %124 = sext i32 %123 to i64
  %125 = getelementptr inbounds i32, ptr %122, i64 %124
  %126 = load i32, ptr %125, align 4, !tbaa !34
  %127 = sub nsw i32 0, %126
  %128 = sitofp i32 %127 to float
  %129 = load ptr, ptr %26, align 8, !tbaa !42
  %130 = load i32, ptr %27, align 4, !tbaa !34
  %131 = sext i32 %130 to i64
  %132 = getelementptr inbounds float, ptr %129, i64 %131
  store float %128, ptr %132, align 4, !tbaa !44
  br label %148

133:                                              ; preds = %112
  %134 = load ptr, ptr %18, align 8, !tbaa !25
  %135 = load i32, ptr %27, align 4, !tbaa !34
  %136 = sext i32 %135 to i64
  %137 = getelementptr inbounds ptr, ptr %134, i64 %136
  %138 = load ptr, ptr %137, align 8, !tbaa !28
  %139 = load i32, ptr %28, align 4, !tbaa !34
  %140 = sext i32 %139 to i64
  %141 = getelementptr inbounds i32, ptr %138, i64 %140
  %142 = load i32, ptr %141, align 4, !tbaa !34
  %143 = sitofp i32 %142 to float
  %144 = load ptr, ptr %26, align 8, !tbaa !42
  %145 = load i32, ptr %27, align 4, !tbaa !34
  %146 = sext i32 %145 to i64
  %147 = getelementptr inbounds float, ptr %144, i64 %146
  store float %143, ptr %147, align 4, !tbaa !44
  br label %148

148:                                              ; preds = %133, %117
  br label %149

149:                                              ; preds = %148
  %150 = load i32, ptr %27, align 4, !tbaa !34
  %151 = add nsw i32 %150, 1
  store i32 %151, ptr %27, align 4, !tbaa !34
  br label %109, !llvm.loop !56

152:                                              ; preds = %109
  br label %198

153:                                              ; preds = %41
  store i32 0, ptr %27, align 4, !tbaa !34
  br label %154

154:                                              ; preds = %194, %153
  %155 = load i32, ptr %27, align 4, !tbaa !34
  %156 = icmp slt i32 %155, 32
  br i1 %156, label %157, label %197

157:                                              ; preds = %154
  %158 = load i32, ptr %27, align 4, !tbaa !34
  %159 = sub nsw i32 %158, 1
  %160 = and i32 %159, 2
  %161 = icmp ne i32 %160, 0
  br i1 %161, label %162, label %178

162:                                              ; preds = %157
  %163 = load ptr, ptr %17, align 8, !tbaa !25
  %164 = load i32, ptr %27, align 4, !tbaa !34
  %165 = sext i32 %164 to i64
  %166 = getelementptr inbounds ptr, ptr %163, i64 %165
  %167 = load ptr, ptr %166, align 8, !tbaa !28
  %168 = load i32, ptr %28, align 4, !tbaa !34
  %169 = sext i32 %168 to i64
  %170 = getelementptr inbounds i32, ptr %167, i64 %169
  %171 = load i32, ptr %170, align 4, !tbaa !34
  %172 = sub nsw i32 0, %171
  %173 = sitofp i32 %172 to float
  %174 = load ptr, ptr %26, align 8, !tbaa !42
  %175 = load i32, ptr %27, align 4, !tbaa !34
  %176 = sext i32 %175 to i64
  %177 = getelementptr inbounds float, ptr %174, i64 %176
  store float %173, ptr %177, align 4, !tbaa !44
  br label %193

178:                                              ; preds = %157
  %179 = load ptr, ptr %17, align 8, !tbaa !25
  %180 = load i32, ptr %27, align 4, !tbaa !34
  %181 = sext i32 %180 to i64
  %182 = getelementptr inbounds ptr, ptr %179, i64 %181
  %183 = load ptr, ptr %182, align 8, !tbaa !28
  %184 = load i32, ptr %28, align 4, !tbaa !34
  %185 = sext i32 %184 to i64
  %186 = getelementptr inbounds i32, ptr %183, i64 %185
  %187 = load i32, ptr %186, align 4, !tbaa !34
  %188 = sitofp i32 %187 to float
  %189 = load ptr, ptr %26, align 8, !tbaa !42
  %190 = load i32, ptr %27, align 4, !tbaa !34
  %191 = sext i32 %190 to i64
  %192 = getelementptr inbounds float, ptr %189, i64 %191
  store float %188, ptr %192, align 4, !tbaa !44
  br label %193

193:                                              ; preds = %178, %162
  br label %194

194:                                              ; preds = %193
  %195 = load i32, ptr %27, align 4, !tbaa !34
  %196 = add nsw i32 %195, 1
  store i32 %196, ptr %27, align 4, !tbaa !34
  br label %154, !llvm.loop !57

197:                                              ; preds = %154
  br label %198

198:                                              ; preds = %197, %152
  %199 = load ptr, ptr %13, align 8, !tbaa !47
  %200 = getelementptr inbounds nuw %struct.SynthFilterContext, ptr %199, i32 0, i32 1
  %201 = load ptr, ptr %200, align 8, !tbaa !58
  %202 = load ptr, ptr %14, align 8, !tbaa !49
  %203 = load ptr, ptr %19, align 8, !tbaa !42
  %204 = load ptr, ptr %20, align 8, !tbaa !28
  %205 = load ptr, ptr %21, align 8, !tbaa !42
  %206 = load ptr, ptr %22, align 8, !tbaa !42
  %207 = load ptr, ptr %16, align 8, !tbaa !42
  %208 = load ptr, ptr %26, align 8, !tbaa !42
  %209 = load float, ptr %24, align 4, !tbaa !44
  %210 = load ptr, ptr %15, align 8, !tbaa !12
  call void %201(ptr noundef %202, ptr noundef %203, ptr noundef %204, ptr noundef %205, ptr noundef %206, ptr noundef %207, ptr noundef %208, float noundef %209, ptr noundef %210)
  %211 = load ptr, ptr %16, align 8, !tbaa !42
  %212 = getelementptr inbounds float, ptr %211, i64 64
  store ptr %212, ptr %16, align 8, !tbaa !42
  br label %213

213:                                              ; preds = %198
  %214 = load i32, ptr %28, align 4, !tbaa !34
  %215 = add nsw i32 %214, 1
  store i32 %215, ptr %28, align 4, !tbaa !34
  br label %36, !llvm.loop !59

216:                                              ; preds = %36
  call void @llvm.lifetime.end.p0(i64 4, ptr %28) #7
  call void @llvm.lifetime.end.p0(i64 4, ptr %27) #7
  call void @llvm.lifetime.end.p0(i64 8, ptr %26) #7
  call void @llvm.lifetime.end.p0(i64 256, ptr %25) #7
  ret void
}