; Function Attrs: nounwind uwtable
define internal void @sub_qmf64_float_c(ptr noundef readonly captures(none) %0, ptr noundef %1, ptr noundef %2, ptr noundef %3, ptr noundef readonly captures(none) %4, ptr noundef readonly captures(address_is_null) %5, ptr noundef %6, ptr noundef %7, ptr noundef %8, ptr noundef %9, i64 noundef %10, float noundef %11) #4 {
  %13 = alloca [64 x float], align 16
  call void @llvm.lifetime.start.p0(i64 256, ptr nonnull %13) #10
  %.not = icmp eq ptr %5, null
  br i1 %.not, label %14, label %.thread

14:                                               ; preds = %12
  %15 = getelementptr inbounds nuw i8, ptr %13, i64 128
  call void @llvm.memset.p0.i64(ptr noundef nonnull align 16 dereferenceable(128) %15, i8 0, i64 128, i1 false)
  %16 = icmp sgt i64 %10, 0
  br i1 %16, label %.preheader.us.preheader, label %._crit_edge

.thread:                                          ; preds = %12
  %17 = icmp sgt i64 %10, 0
  br i1 %17, label %.preheader70.preheader, label %._crit_edge

.preheader70.preheader:                           ; preds = %.thread
  %18 = getelementptr inbounds nuw i8, ptr %0, i64 8
  br label %.preheader70

.preheader.us.preheader:                          ; preds = %14
  %19 = getelementptr inbounds nuw i8, ptr %0, i64 8
  br label %.preheader.us

.preheader.us:                                    ; preds = %.preheader.us.preheader, %.loopexit.us
  %indvars.iv90 = phi i64 [ 0, %.preheader.us.preheader ], [ %indvars.iv.next91, %.loopexit.us ]
  %.06274.us = phi ptr [ %3, %.preheader.us.preheader ], [ %31, %.loopexit.us ]
  br label %20

20:                                               ; preds = %.preheader.us, %20
  %indvars.iv86 = phi i64 [ 0, %.preheader.us ], [ %indvars.iv.next87, %20 ]
  %21 = trunc i64 %indvars.iv86 to i32
  %22 = add i32 %21, 3
  %23 = and i32 %22, 2
  %.not65.us = icmp eq i32 %23, 0
  %24 = getelementptr inbounds nuw ptr, ptr %4, i64 %indvars.iv86
  %25 = load ptr, ptr %24, align 8, !tbaa !25
  %26 = getelementptr inbounds nuw i32, ptr %25, i64 %indvars.iv90
  %27 = load i32, ptr %26, align 4, !tbaa !23
  %28 = sub nsw i32 0, %27
  %.sink.in = select i1 %.not65.us, i32 %27, i32 %28
  %.sink = sitofp i32 %.sink.in to float
  %29 = getelementptr inbounds nuw float, ptr %13, i64 %indvars.iv86
  store float %.sink, ptr %29, align 4, !tbaa !33
  %indvars.iv.next87 = add nuw nsw i64 %indvars.iv86, 1
  %exitcond89.not = icmp eq i64 %indvars.iv.next87, 32
  br i1 %exitcond89.not, label %.loopexit.us, label %20, !llvm.loop !43

.loopexit.us:                                     ; preds = %20
  %30 = load ptr, ptr %19, align 8, !tbaa !44
  call void %30(ptr noundef %1, ptr noundef %6, ptr noundef %7, ptr noundef %8, ptr noundef %9, ptr noundef %.06274.us, ptr noundef nonnull %13, float noundef %11, ptr noundef %2) #10
  %31 = getelementptr inbounds nuw i8, ptr %.06274.us, i64 256
  %indvars.iv.next91 = add nuw nsw i64 %indvars.iv90, 1
  %exitcond93.not = icmp eq i64 %indvars.iv.next91, %10
  br i1 %exitcond93.not, label %._crit_edge, label %.preheader.us, !llvm.loop !45

.preheader70:                                     ; preds = %.preheader70.preheader, %.loopexit69
  %indvars.iv82 = phi i64 [ 0, %.preheader70.preheader ], [ %indvars.iv.next83, %.loopexit69 ]
  %.06274 = phi ptr [ %3, %.preheader70.preheader ], [ %57, %.loopexit69 ]
  br label %32

32:                                               ; preds = %.preheader70, %32
  %indvars.iv = phi i64 [ 0, %.preheader70 ], [ %indvars.iv.next, %32 ]
  %33 = trunc i64 %indvars.iv to i32
  %34 = add i32 %33, 3
  %35 = and i32 %34, 2
  %.not67 = icmp eq i32 %35, 0
  %36 = getelementptr inbounds nuw ptr, ptr %4, i64 %indvars.iv
  %37 = load ptr, ptr %36, align 8, !tbaa !25
  %38 = getelementptr inbounds nuw i32, ptr %37, i64 %indvars.iv82
  %39 = load i32, ptr %38, align 4, !tbaa !23
  %40 = getelementptr inbounds nuw ptr, ptr %5, i64 %indvars.iv
  %41 = load ptr, ptr %40, align 8, !tbaa !25
  %42 = getelementptr inbounds nuw i32, ptr %41, i64 %indvars.iv82
  %43 = load i32, ptr %42, align 4, !tbaa !23
  %44 = add i32 %43, %39
  %45 = sub i32 0, %44
  %.sink94.in = select i1 %.not67, i32 %44, i32 %45
  %.sink94 = sitofp i32 %.sink94.in to float
  %46 = getelementptr inbounds nuw float, ptr %13, i64 %indvars.iv
  store float %.sink94, ptr %46, align 4, !tbaa !33
  %indvars.iv.next = add nuw nsw i64 %indvars.iv, 1
  %exitcond.not = icmp eq i64 %indvars.iv.next, 32
  br i1 %exitcond.not, label %.preheader68, label %32, !llvm.loop !46

.preheader68:                                     ; preds = %32, %.preheader68
  %indvars.iv78 = phi i64 [ %indvars.iv.next79, %.preheader68 ], [ 32, %32 ]
  %47 = trunc i64 %indvars.iv78 to i32
  %48 = add i32 %47, 3
  %49 = and i32 %48, 2
  %.not66 = icmp eq i32 %49, 0
  %50 = getelementptr inbounds nuw ptr, ptr %5, i64 %indvars.iv78
  %51 = load ptr, ptr %50, align 8, !tbaa !25
  %52 = getelementptr inbounds nuw i32, ptr %51, i64 %indvars.iv82
  %53 = load i32, ptr %52, align 4, !tbaa !23
  %54 = sub nsw i32 0, %53
  %.sink95.in = select i1 %.not66, i32 %53, i32 %54
  %.sink95 = sitofp i32 %.sink95.in to float
  %55 = getelementptr inbounds nuw float, ptr %13, i64 %indvars.iv78
  store float %.sink95, ptr %55, align 4, !tbaa !33
  %indvars.iv.next79 = add nuw nsw i64 %indvars.iv78, 1
  %exitcond81.not = icmp eq i64 %indvars.iv.next79, 64
  br i1 %exitcond81.not, label %.loopexit69, label %.preheader68, !llvm.loop !47

.loopexit69:                                      ; preds = %.preheader68
  %56 = load ptr, ptr %18, align 8, !tbaa !44
  call void %56(ptr noundef %1, ptr noundef %6, ptr noundef %7, ptr noundef %8, ptr noundef %9, ptr noundef %.06274, ptr noundef nonnull %13, float noundef %11, ptr noundef %2) #10
  %57 = getelementptr inbounds nuw i8, ptr %.06274, i64 256
  %indvars.iv.next83 = add nuw nsw i64 %indvars.iv82, 1
  %exitcond85.not = icmp eq i64 %indvars.iv.next83, %10
  br i1 %exitcond85.not, label %._crit_edge, label %.preheader70, !llvm.loop !45

._crit_edge:                                      ; preds = %.loopexit69, %.loopexit.us, %.thread, %14
  call void @llvm.lifetime.end.p0(i64 256, ptr nonnull %13) #10
  ret void
}